(dp1
V9df986c76f3a1bd32b2f41621967de3f
p2
V9df986c76f3a1bd32b2f41621967de3f.jpg
p3
sV6190deb92b492ca08b7c9cd9320c580d
p4
V6190deb92b492ca08b7c9cd9320c580d.jpg
p5
sVd13736fb19613bd8cb3885e79d57b8dc
p6
Vd13736fb19613bd8cb3885e79d57b8dc.jpg
p7
sVe7344321619248a681cadb515d780b35
p8
Ve7344321619248a681cadb515d780b35.jpg
p9
sVc80f43691a236ddf4a64a7ac54a5910a
p10
Vc80f43691a236ddf4a64a7ac54a5910a.jpg
p11
sV19a47d37edabcbeb52989b17926c9505
p12
V19a47d37edabcbeb52989b17926c9505.png
p13
sV804248144622e47bf94aa197463e1759
p14
V804248144622e47bf94aa197463e1759.jpg
p15
sVd7e5fe76fcd0171f39d9b650036c32ee
p16
Vd7e5fe76fcd0171f39d9b650036c32ee.jpg
p17
sV05590b5883ab88cdca0b6802769259ac
p18
V05590b5883ab88cdca0b6802769259ac.jpg
p19
sV03e2673e00b57554926e5ea16947b30c
p20
V03e2673e00b57554926e5ea16947b30c.jpg
p21
sVbfbc0dd814d693c76c953fcc5a41d5e7
p22
Vbfbc0dd814d693c76c953fcc5a41d5e7.jpg
p23
sV7be3b64e9298322cb21a2fd883cefa37
p24
V7be3b64e9298322cb21a2fd883cefa37.png
p25
sV8cc8af4c76ca7409fbf3715af027a7ff
p26
V8cc8af4c76ca7409fbf3715af027a7ff.jpg
p27
sVd1cfe2e39e904dc5c4070e66216dc756
p28
Vd1cfe2e39e904dc5c4070e66216dc756.jpg
p29
sV303a0bbdd728fe67057598616feee28e
p30
V303a0bbdd728fe67057598616feee28e.jpg
p31
sVa9131d6afd89d4f8bffe8179f3db1061
p32
Va9131d6afd89d4f8bffe8179f3db1061.png
p33
sV43166fcc6b0df15f5797facf3cbce244
p34
V43166fcc6b0df15f5797facf3cbce244.png
p35
sV2ec7b636d2f1c46437da9affb7244bcb
p36
V2ec7b636d2f1c46437da9affb7244bcb.jpg
p37
sVe7a136e149a989f51cd6b5ed8829e136
p38
Ve7a136e149a989f51cd6b5ed8829e136.jpg
p39
sVcd18a9a140220ce9cd2ff19c8d76f291
p40
Vcd18a9a140220ce9cd2ff19c8d76f291.jpg
p41
sV2e287d64294efa9f0100bc6679ebd17a
p42
V2e287d64294efa9f0100bc6679ebd17a.jpg
p43
sV6e4980c09c0dbc28d30e84a1dc735cb3
p44
V6e4980c09c0dbc28d30e84a1dc735cb3.png
p45
sVb08a74945b24d6ecd7976a151d422d6f
p46
Vb08a74945b24d6ecd7976a151d422d6f.jpg
p47
sVcdfd82009c1b0adc7c5f17e2729f0027
p48
Vcdfd82009c1b0adc7c5f17e2729f0027.png
p49
sV1e74c9f9aa3c02f8a8c8dd581a4153e5
p50
V1e74c9f9aa3c02f8a8c8dd581a4153e5.swf
p51
sVa3fe57e561e799360d4bd783a0c86bcb
p52
Va3fe57e561e799360d4bd783a0c86bcb.jpg
p53
sV69f2f455175fac04fc174c0327e155df
p54
V69f2f455175fac04fc174c0327e155df.jpg
p55
sVb21afb78841d8bfbeb8ac7f566054a47
p56
Vb21afb78841d8bfbeb8ac7f566054a47.jpg
p57
sVa5d7a4605ffcfaee92ce0f6667345b3c
p58
Va5d7a4605ffcfaee92ce0f6667345b3c.jpg
p59
sV6c4047e4ecd81281af67b40aba1977a1
p60
V6c4047e4ecd81281af67b40aba1977a1.jpg
p61
sVf8b936d5306a71c03efd4ae542c3933d
p62
Vf8b936d5306a71c03efd4ae542c3933d.png
p63
sV94581a5bda556b9c2321aa63c1655a23
p64
V94581a5bda556b9c2321aa63c1655a23.jpg
p65
sV119a730a97542ac2be8dc1428d9fe841
p66
V119a730a97542ac2be8dc1428d9fe841.png
p67
sVb6ffeec826cf7d80bf58a66bb628ce6b
p68
Vb6ffeec826cf7d80bf58a66bb628ce6b.png
p69
sV7a9ebf3335ed4326f00f8fa683b8963d
p70
V7a9ebf3335ed4326f00f8fa683b8963d.png
p71
sV9eaf5f135b7393225f34e0ecb1314a40
p72
V9eaf5f135b7393225f34e0ecb1314a40.jpg
p73
sV012f64bf6eb4cb8eaab2a2921bae23f1
p74
V012f64bf6eb4cb8eaab2a2921bae23f1.jpg
p75
sVc29847a9418052b050494f871e55955f
p76
Vc29847a9418052b050494f871e55955f.jpg
p77
sVd5b99e8f508f90488c4fe32b9827c810
p78
Vd5b99e8f508f90488c4fe32b9827c810.jpg
p79
sV937222a34a8bd66edfbd9095b69be76a
p80
V937222a34a8bd66edfbd9095b69be76a.jpg
p81
sVf42ba37e7b9ca1fc8b932fd3e91491fb
p82
Vf42ba37e7b9ca1fc8b932fd3e91491fb.jpg
p83
sVd5074f84c99b41b1d2295638eaabec71
p84
Vd5074f84c99b41b1d2295638eaabec71.jpg
p85
sVd3208d2a786d88b9338e35045830eb79
p86
Vd3208d2a786d88b9338e35045830eb79.swf
p87
sV6f91e460dc09770500fe7e1280598dd6
p88
V6f91e460dc09770500fe7e1280598dd6.jpg
p89
sVc771bff1d8ade46878051c0fae9b334f
p90
Vc771bff1d8ade46878051c0fae9b334f.png
p91
sVadf5a9be4d7fe27e6fd0ea88c8034550
p92
Vadf5a9be4d7fe27e6fd0ea88c8034550.jpg
p93
sV9bc6ade8657abe71ccbcd4a56559ffba
p94
V9bc6ade8657abe71ccbcd4a56559ffba.png
p95
sV8876db16e33b86619d5d94b47e2aa120
p96
V8876db16e33b86619d5d94b47e2aa120.png
p97
sVe012f23b29c9f4e299b35ba2e5b95e06
p98
Ve012f23b29c9f4e299b35ba2e5b95e06.png
p99
sV780c371a29ef7b62309ca21b7a1a0a2e
p100
V780c371a29ef7b62309ca21b7a1a0a2e.jpg
p101
sVd3d9ab6adcf65b6f394f197de3403c36
p102
Vd3d9ab6adcf65b6f394f197de3403c36.jpg
p103
sVa6b046f424da4a612c83d46f7716b79e
p104
Va6b046f424da4a612c83d46f7716b79e.jpg
p105
sV895e085bac0616808e5dc790d7c6e163
p106
V895e085bac0616808e5dc790d7c6e163.jpg
p107
sV5929884c8e5016996f63ad4cdf377707
p108
V5929884c8e5016996f63ad4cdf377707.jpg
p109
sV205f7df201c7075f356a3315c893f069
p110
V205f7df201c7075f356a3315c893f069.jpg
p111
sVb63988cf3da4b62b0096d5e921fef142
p112
Vb63988cf3da4b62b0096d5e921fef142.jpg
p113
sV53ebcbae456c911225eb063335a60880
p114
V53ebcbae456c911225eb063335a60880.png
p115
sV962c41d157949ea4e11ea07a1c604e43
p116
V962c41d157949ea4e11ea07a1c604e43.jpg
p117
sVb48e91915628262ece6e391e8eab20a1
p118
Vb48e91915628262ece6e391e8eab20a1.png
p119
sV56ef2c40f535f7db5720c180c9228ae2
p120
V56ef2c40f535f7db5720c180c9228ae2.jpg
p121
sV42f01198b02372c88875bbc04d73de21
p122
V42f01198b02372c88875bbc04d73de21.png
p123
sV482d09cf77499a00f1e052877e15be89
p124
V482d09cf77499a00f1e052877e15be89.jpg
p125
sV831558d924e9eb73cd15816164a87a90
p126
V831558d924e9eb73cd15816164a87a90.jpg
p127
sV941bc82720a2f5411e8bda688432b224
p128
V941bc82720a2f5411e8bda688432b224.jpg
p129
sV5189cb78f7c54867928dbcf78dff4e10
p130
V5189cb78f7c54867928dbcf78dff4e10.png
p131
sV7ec527febe2b27867552068ddecd5e76
p132
V7ec527febe2b27867552068ddecd5e76.jpg
p133
sV76106832b9db36a28517e37d0396c6a2
p134
V76106832b9db36a28517e37d0396c6a2.jpg
p135
sV319af96c40fe1a0f4e9f755e5b37b3fe
p136
V319af96c40fe1a0f4e9f755e5b37b3fe.jpg
p137
sV22eaf0e287f44c7a625b6e8ff30bc624
p138
V22eaf0e287f44c7a625b6e8ff30bc624.jpg
p139
sV84429a6d45ed8be327934599801420f1
p140
V84429a6d45ed8be327934599801420f1.jpg
p141
sVadd13369f033f393653107c6aa307abf
p142
Vadd13369f033f393653107c6aa307abf.png
p143
sV7912ef9dcdce2b3027958a2cd87470f0
p144
V7912ef9dcdce2b3027958a2cd87470f0.swf
p145
sV02ed059bb2681ad703d4e311a013f8ed
p146
V02ed059bb2681ad703d4e311a013f8ed.jpg
p147
sVe9957e75e931729ac310cedfcb820a07
p148
Ve9957e75e931729ac310cedfcb820a07.png
p149
sVebff39aa0270ec1a3afb6f6391e178ff
p150
Vebff39aa0270ec1a3afb6f6391e178ff.jpg
p151
sV02e020518f2bc385b88d2ea8bc694556
p152
V02e020518f2bc385b88d2ea8bc694556.jpg
p153
sV41becbe8070c3c5b6c97081eb72ee3b6
p154
V41becbe8070c3c5b6c97081eb72ee3b6.jpg
p155
sV42031e4adf3918b54559d3a9d9fb6422
p156
V42031e4adf3918b54559d3a9d9fb6422.png
p157
sV8b541f569bb9a074bb1bb61e15cae157
p158
V8b541f569bb9a074bb1bb61e15cae157.jpg
p159
sV13c0f5d670c7fe2336cdef5d8a83786a
p160
V13c0f5d670c7fe2336cdef5d8a83786a.jpg
p161
sVb51bd47f9c9a852232f763cf4da2d417
p162
Vb51bd47f9c9a852232f763cf4da2d417.jpg
p163
sV94152c360d5e57d0f2c58a82c8ab197a
p164
V94152c360d5e57d0f2c58a82c8ab197a.png
p165
sV9d2a3f733d5aa79c294b7f7b214aef87
p166
V9d2a3f733d5aa79c294b7f7b214aef87.jpg
p167
sV34556dadeea69013dca7f20f63fd6019
p168
V34556dadeea69013dca7f20f63fd6019.jpg
p169
sVfaa7c54401615012f2e03d0120866aed
p170
Vfaa7c54401615012f2e03d0120866aed.jpg
p171
sVae1caf7ad395b527c35fba9804b735b9
p172
Vae1caf7ad395b527c35fba9804b735b9.jpg
p173
sV81d470852902d5931506f2db900baf11
p174
V81d470852902d5931506f2db900baf11.jpg
p175
sV1962068b884e26fad09344bd7d011f5c
p176
V1962068b884e26fad09344bd7d011f5c.jpg
p177
sVbea214174a560d2279ad1379898e905e
p178
Vbea214174a560d2279ad1379898e905e.png
p179
sV408846421c0ff73d2efe6470fe46d59f
p180
V408846421c0ff73d2efe6470fe46d59f.png
p181
sVc7abc502a23098be57f1c280600fcc85
p182
Vc7abc502a23098be57f1c280600fcc85.jpg
p183
sV1c8f9239bf56e3b2cece16aa5556e128
p184
V1c8f9239bf56e3b2cece16aa5556e128.jpg
p185
sV404e14aafe9b34a867bf5d25b2bc0d51
p186
V404e14aafe9b34a867bf5d25b2bc0d51.jpg
p187
sVaa35ee76b48da42bc7199327dc296d44
p188
Vaa35ee76b48da42bc7199327dc296d44.jpg
p189
sVc6ebbced1f5c9c2cb360f19fcdd237eb
p190
Vc6ebbced1f5c9c2cb360f19fcdd237eb.jpg
p191
sV73cc3189e743197f7d514f162e9bae87
p192
V73cc3189e743197f7d514f162e9bae87.jpg
p193
sV342c348a59a4bca5d4e86178e75f7225
p194
V342c348a59a4bca5d4e86178e75f7225.jpg
p195
sV6beb68469aa863cb57edde5bd7982927
p196
V6beb68469aa863cb57edde5bd7982927.png
p197
sV8ed2e115a650355a740cfaa1860161ec
p198
V8ed2e115a650355a740cfaa1860161ec.jpg
p199
sV21b93cbfcbbade4305b7e996af83607f
p200
V21b93cbfcbbade4305b7e996af83607f.jpg
p201
sVdf10f3709cf5f12573602a42df89bc2e
p202
Vdf10f3709cf5f12573602a42df89bc2e.png
p203
sV7b3708955f189024fc6b47f1883d26eb
p204
V7b3708955f189024fc6b47f1883d26eb.jpg
p205
sVbfcf1bb190bc4f23d6d628dd860cf462
p206
Vbfcf1bb190bc4f23d6d628dd860cf462.jpg
p207
sV60484538be03ca7fabd420634a454a04
p208
V60484538be03ca7fabd420634a454a04.png
p209
sVfeb64bfd8766005d04326def8fb824c3
p210
Vfeb64bfd8766005d04326def8fb824c3.png
p211
sVe44e99ec6ecd2a6cdc25da74ab17d44f
p212
Ve44e99ec6ecd2a6cdc25da74ab17d44f.jpg
p213
sV3e7a1c4c54a9c1595ef25ddada542d85
p214
V3e7a1c4c54a9c1595ef25ddada542d85.jpg
p215
sV6d68eb826bfc8e55bceaefba394d9a91
p216
V6d68eb826bfc8e55bceaefba394d9a91.jpg
p217
sV57d11e3e872a6dfc8f079eeff1617e2b
p218
V57d11e3e872a6dfc8f079eeff1617e2b.jpg
p219
sV1fb98786ad684ebc6bcfdacef07ba9cc
p220
V1fb98786ad684ebc6bcfdacef07ba9cc.jpg
p221
sV9b8ef604679c33d038d2dd052533f249
p222
V9b8ef604679c33d038d2dd052533f249.jpg
p223
sV9cf2272e7283ce107af25ff563ce5ef6
p224
V9cf2272e7283ce107af25ff563ce5ef6.png
p225
sVa2641d1397b990e9b7b15770fb82c2b8
p226
Va2641d1397b990e9b7b15770fb82c2b8.jpg
p227
sVd48ae117ac78db112e457bf165966374
p228
Vd48ae117ac78db112e457bf165966374.png
p229
sV4da829ae26f97b7bc8581cd240138614
p230
V4da829ae26f97b7bc8581cd240138614.jpg
p231
sV13e0df39bd90ee54d16b081352c445b8
p232
V13e0df39bd90ee54d16b081352c445b8.jpg
p233
sV9b67f5dc4a9d46caa7644b7426a2be60
p234
V9b67f5dc4a9d46caa7644b7426a2be60.jpg
p235
sV4a98d38731b13d79a9f45e3422da8e47
p236
V4a98d38731b13d79a9f45e3422da8e47.jpg
p237
sV998e9c6096903e7fe19258d6a6031409
p238
V998e9c6096903e7fe19258d6a6031409.png
p239
sVde01c94c4656c0a4a1fa2e3346cd1cd2
p240
Vde01c94c4656c0a4a1fa2e3346cd1cd2.jpg
p241
sV350a3bdb9b6d7c175970a91d91b3f078
p242
V350a3bdb9b6d7c175970a91d91b3f078.jpg
p243
sV3e3a78b609f523549e5000646d5976d8
p244
V3e3a78b609f523549e5000646d5976d8.jpg
p245
sVfc76dca1a6a676faa2640d30ec5e50fe
p246
Vfc76dca1a6a676faa2640d30ec5e50fe.png
p247
sV1eab8fcdfa51776561e59eff7af955ca
p248
V1eab8fcdfa51776561e59eff7af955ca.jpg
p249
sV482a9dffa347cdf45e24dd750fe8702a
p250
V482a9dffa347cdf45e24dd750fe8702a.jpg
p251
sV864ad5809bd7d47a6748a545e140d6db
p252
V864ad5809bd7d47a6748a545e140d6db.jpg
p253
sV624c5e0cac3e4a7de3dfa62c8dabed43
p254
V624c5e0cac3e4a7de3dfa62c8dabed43.jpg
p255
sV0ecca863c498b244b7a4f798f5606a4d
p256
V0ecca863c498b244b7a4f798f5606a4d.png
p257
sVaccd6c59d8bb3acb735980b607ac9fa4
p258
Vaccd6c59d8bb3acb735980b607ac9fa4.jpg
p259
sVe09eb7c21ff46e237785f19a99ed4881
p260
Ve09eb7c21ff46e237785f19a99ed4881.jpg
p261
sVaca61ed6b65f008d3443cd85ca4c3adc
p262
Vaca61ed6b65f008d3443cd85ca4c3adc.jpg
p263
sVcea8dca43f69365d8e3504db66bf013d
p264
Vcea8dca43f69365d8e3504db66bf013d.png
p265
sV2998f175fefa40fd5f87b7b72c8c6ba0
p266
V2998f175fefa40fd5f87b7b72c8c6ba0.jpg
p267
sV0e9abdd2c66fca218dade41e6e0f0397
p268
V0e9abdd2c66fca218dade41e6e0f0397.png
p269
sVe828163c3e49044d0cd32422c8bb186a
p270
Ve828163c3e49044d0cd32422c8bb186a.jpg
p271
sV3ed7de9cc26d879b8c4ab6c66399aa3a
p272
V3ed7de9cc26d879b8c4ab6c66399aa3a.jpg
p273
sV7a58402d859c21a6e7f61d8c8e6db40a
p274
V7a58402d859c21a6e7f61d8c8e6db40a.jpg
p275
sVa051304be2d43cfedf5554a3a512c5da
p276
Va051304be2d43cfedf5554a3a512c5da.jpg
p277
sVf0558abfca7edf50d1be3e9aa309e5fa
p278
Vf0558abfca7edf50d1be3e9aa309e5fa.jpg
p279
sVfe6cd680c8a06f74c55e24fe938e4c44
p280
Vfe6cd680c8a06f74c55e24fe938e4c44.jpg
p281
sVebee96bfba2720105a434f2f60a4f0ab
p282
Vebee96bfba2720105a434f2f60a4f0ab.jpg
p283
sV13a9865eb526be144e5df090725c3bf4
p284
V13a9865eb526be144e5df090725c3bf4.png
p285
sV059a5dd7a606adb8a8d3d9fef2069640
p286
V059a5dd7a606adb8a8d3d9fef2069640.jpg
p287
sV74d0393602a8c49ed5c7e13c53e1c1e6
p288
V74d0393602a8c49ed5c7e13c53e1c1e6.png
p289
sVf74baffb6486ae69d24d51b421273325
p290
Vf74baffb6486ae69d24d51b421273325.png
p291
sVd331b2e170e51efcf4371202e9089026
p292
Vd331b2e170e51efcf4371202e9089026.png
p293
sVc3edcaebe440693b029fb108faec39ea
p294
Vc3edcaebe440693b029fb108faec39ea.jpg
p295
sV0eac46181daaca3ade7edfa2a67c92c6
p296
V0eac46181daaca3ade7edfa2a67c92c6.jpg
p297
sV8b8dec4a24b6360a0cf34ccc1b0e12f2
p298
V8b8dec4a24b6360a0cf34ccc1b0e12f2.png
p299
sV427c495ec2c26b0935f7797615bf90de
p300
V427c495ec2c26b0935f7797615bf90de.jpg
p301
sVe181394f31e00d376ff7479e76549af7
p302
Ve181394f31e00d376ff7479e76549af7.png
p303
sV4bb011132035c39e146ba0553489eb3f
p304
V4bb011132035c39e146ba0553489eb3f.png
p305
sV932716dc7c7399e217bfc8d4198a635c
p306
V932716dc7c7399e217bfc8d4198a635c.png
p307
sV49f64236bc34436242002ff73f55b0e9
p308
V49f64236bc34436242002ff73f55b0e9.jpg
p309
sV7d2a1ffeefe5b4e0ee6c3173a46723fd
p310
V7d2a1ffeefe5b4e0ee6c3173a46723fd.jpg
p311
sV1aba295eeaa675999a1dfaca271e8973
p312
V1aba295eeaa675999a1dfaca271e8973.png
p313
sV0f60341d2e4cc390fcbcdec643475857
p314
V0f60341d2e4cc390fcbcdec643475857.jpg
p315
sVa301282eb3c34c730f83ed74c3159464
p316
Va301282eb3c34c730f83ed74c3159464.jpg
p317
sV317041ace15c4203884f983f521712ab
p318
V317041ace15c4203884f983f521712ab.png
p319
sV58654fdea67055ebb79936620879b393
p320
V58654fdea67055ebb79936620879b393.jpg
p321
sVaafd052d3ad4cc6cf5c742b84279df95
p322
Vaafd052d3ad4cc6cf5c742b84279df95.png
p323
sV0bebbb2ef6c3ec78fc9885291d591a48
p324
V0bebbb2ef6c3ec78fc9885291d591a48.png
p325
sV583b9e9f18139ebff4301542ce1c7c72
p326
V583b9e9f18139ebff4301542ce1c7c72.jpg
p327
sVad51ab1d927079c854cc72f4510bc279
p328
Vad51ab1d927079c854cc72f4510bc279.jpg
p329
sV2c04c9ab3e974b991ac6272b5c6b8bc2
p330
V2c04c9ab3e974b991ac6272b5c6b8bc2.jpg
p331
sV244a8a843849769ad04041ec460f5e2e
p332
V244a8a843849769ad04041ec460f5e2e.jpg
p333
sV7dd5fcd5f3679e361801c19e52acf353
p334
V7dd5fcd5f3679e361801c19e52acf353.jpg
p335
sV5217642d82f3399040f304e9645c9210
p336
V5217642d82f3399040f304e9645c9210.png
p337
sV5c44e296df3bd58b6731629027087f07
p338
V5c44e296df3bd58b6731629027087f07.jpg
p339
sV524777f86ccc5166d374c18166c7e476
p340
V524777f86ccc5166d374c18166c7e476.png
p341
sV7304cef70315229ceede95ece78bae01
p342
V7304cef70315229ceede95ece78bae01.jpg
p343
sV92ef41fefc950b0b2f05603c1a252fb4
p344
V92ef41fefc950b0b2f05603c1a252fb4.png
p345
sVad9001aaead77ce52e964edb18c39df0
p346
Vad9001aaead77ce52e964edb18c39df0.jpg
p347
sVf3cbc10ea60f7fa68628052788044310
p348
Vf3cbc10ea60f7fa68628052788044310.jpg
p349
sV774d9653cb5abf93810a08b00717874a
p350
V774d9653cb5abf93810a08b00717874a.png
p351
sV5ce14b755198b6b787269d95ce4758a7
p352
V5ce14b755198b6b787269d95ce4758a7.jpg
p353
sVb554301284bfc1b3184d7f9e617f1a96
p354
Vb554301284bfc1b3184d7f9e617f1a96.png
p355
sV4b293a8cec6c378a8ba006272da3ea50
p356
V4b293a8cec6c378a8ba006272da3ea50.jpg
p357
sVcc9b71edb72cbc3fb1479b177261b38a
p358
Vcc9b71edb72cbc3fb1479b177261b38a.jpg
p359
sVacfffc5b161d5d685caf7e82c393ad0b
p360
Vacfffc5b161d5d685caf7e82c393ad0b.jpg
p361
sVb97b01b74059a8ab31fb02e06ea0cf7e
p362
Vb97b01b74059a8ab31fb02e06ea0cf7e.jpg
p363
sV9e1be169f804919d64e443b6160abbd0
p364
V9e1be169f804919d64e443b6160abbd0.jpg
p365
sV5de3642e7ba63894372121392995561c
p366
V5de3642e7ba63894372121392995561c.jpg
p367
sV0c012e3719a3f9557ee774de428ed57d
p368
V0c012e3719a3f9557ee774de428ed57d.jpg
p369
sV5d3f1fb0b1b8592ed1b5e7350b8f3551
p370
V5d3f1fb0b1b8592ed1b5e7350b8f3551.jpg
p371
sVb51d24810349fa243d0edf696beee4bc
p372
Vb51d24810349fa243d0edf696beee4bc.jpg
p373
sV5e63a093dc3f3d7c9c3dfd2c705f5fdc
p374
V5e63a093dc3f3d7c9c3dfd2c705f5fdc.jpg
p375
sV132c49f9e7470368e6c047b8ee12660f
p376
V132c49f9e7470368e6c047b8ee12660f.png
p377
sV689adc9d10ae09a3ee0d6ae47f16d00b
p378
V689adc9d10ae09a3ee0d6ae47f16d00b.jpg
p379
sVf1227c1c287d574ecb072a9b3e999692
p380
Vf1227c1c287d574ecb072a9b3e999692.jpg
p381
sV6be5a42bd84cabb34afedb7b74195ae4
p382
V6be5a42bd84cabb34afedb7b74195ae4.jpg
p383
sV8a4256fe4982f849356c75eccf6c095d
p384
V8a4256fe4982f849356c75eccf6c095d.jpg
p385
sV2ae7e7fac300b00c2d3b926cf68423c7
p386
V2ae7e7fac300b00c2d3b926cf68423c7.jpg
p387
sV31e41b2581c93a2d42a6c60f6fa6a528
p388
V31e41b2581c93a2d42a6c60f6fa6a528.jpg
p389
sVffceb24adc137a3b86f5f6b57f7da52d
p390
Vffceb24adc137a3b86f5f6b57f7da52d.jpg
p391
sVabe65dcce96ea1db230749a7167b6c41
p392
Vabe65dcce96ea1db230749a7167b6c41.jpg
p393
sVa02ff90cd069bf49109b107bf94c07e0
p394
Va02ff90cd069bf49109b107bf94c07e0.jpg
p395
sVa6612c92be896473ea00f4af67dfbd8c
p396
Va6612c92be896473ea00f4af67dfbd8c.png
p397
sV8495a3ea8ee5a544dc5ec22255de35d4
p398
V8495a3ea8ee5a544dc5ec22255de35d4.jpg
p399
sV5f449247eb0d55298faf63b30bbb0c0d
p400
V5f449247eb0d55298faf63b30bbb0c0d.jpg
p401
sV12a035c46657214b1952fe404387f60f
p402
V12a035c46657214b1952fe404387f60f.jpg
p403
sV53c851bad676c004f6594d8e283f15c3
p404
V53c851bad676c004f6594d8e283f15c3.png
p405
sVcd45970c9d1081638143e0ac202764f2
p406
Vcd45970c9d1081638143e0ac202764f2.jpg
p407
sVa2110b83408d79909b1c7c142105cb30
p408
Va2110b83408d79909b1c7c142105cb30.jpg
p409
sVadf0cf5071e15d57ed7bb8b7fca34bdf
p410
Vadf0cf5071e15d57ed7bb8b7fca34bdf.png
p411
sV696bdf97b9c5080086941c9c7ef226f9
p412
V696bdf97b9c5080086941c9c7ef226f9.jpg
p413
sVab98bc3107679234b8a5e87c5b93b387
p414
Vab98bc3107679234b8a5e87c5b93b387.jpg
p415
sV26f04e1020ea0bd05f2ae715254caed9
p416
V26f04e1020ea0bd05f2ae715254caed9.png
p417
sVf8fac23ed9a4e8cf5d84a34ec5c34b5c
p418
Vf8fac23ed9a4e8cf5d84a34ec5c34b5c.jpg
p419
sV0fae4057bf954efff9a84d39fd4ec8a8
p420
V0fae4057bf954efff9a84d39fd4ec8a8.jpg
p421
sV11a223b3195f113caa164bf8fcf828f8
p422
V11a223b3195f113caa164bf8fcf828f8.jpg
p423
sV55f7d6a818cae076f5f3da60e710530b
p424
V55f7d6a818cae076f5f3da60e710530b.png
p425
sVdfee0f0273238d68d510405eaae2376d
p426
Vdfee0f0273238d68d510405eaae2376d.jpg
p427
sVcd77dfbf41de92ebc510714a729540d2
p428
Vcd77dfbf41de92ebc510714a729540d2.jpg
p429
sV7d14918babdac842e9ff359c5c39dc1f
p430
V7d14918babdac842e9ff359c5c39dc1f.jpg
p431
sV7337417a588511b9c505535a2fdc4b8e
p432
V7337417a588511b9c505535a2fdc4b8e.jpg
p433
sV869e27dcdfcb81d32c115e5666af528d
p434
V869e27dcdfcb81d32c115e5666af528d.jpg
p435
sVbd2d63005927838e237337e75cc11d67
p436
Vbd2d63005927838e237337e75cc11d67.gif
p437
sVb6f981349c885b0a3925a211c2de3c5e
p438
Vb6f981349c885b0a3925a211c2de3c5e.jpg
p439
sVadd0dad4b49ba0e06345baa402473a56
p440
Vadd0dad4b49ba0e06345baa402473a56.jpg
p441
sVb8a3407c037a88515c742b0184fae7e0
p442
Vb8a3407c037a88515c742b0184fae7e0.png
p443
sV668ee581ac2f4ac6d3acbae2ede33aea
p444
V668ee581ac2f4ac6d3acbae2ede33aea.png
p445
sV55eda1136e94fa765ef4b5fc5474e309
p446
V55eda1136e94fa765ef4b5fc5474e309.jpg
p447
sV1c420ffbaef35080677d8c4497c3abe3
p448
V1c420ffbaef35080677d8c4497c3abe3.jpg
p449
sV959236a55d57456871e31b8160a870ff
p450
V959236a55d57456871e31b8160a870ff.jpg
p451
sVd7a860c4dd60774725a5295242ce52fd
p452
Vd7a860c4dd60774725a5295242ce52fd.png
p453
sV9077a86e809c859486224b75ce5f052f
p454
V9077a86e809c859486224b75ce5f052f.png
p455
sVc7c8eb0c6eb020d21d0897a827534b52
p456
Vc7c8eb0c6eb020d21d0897a827534b52.jpg
p457
sV6fa99f39269d8dbfa0218a8458ff1fe7
p458
V6fa99f39269d8dbfa0218a8458ff1fe7.png
p459
sV9270fb3740891fa1a10cf1c9ab682257
p460
V9270fb3740891fa1a10cf1c9ab682257.jpg
p461
sV4e0fbacd314d68ec2edd90e518104330
p462
V4e0fbacd314d68ec2edd90e518104330.jpg
p463
sV55c7fe276bed38ad082387be7dbd4b53
p464
V55c7fe276bed38ad082387be7dbd4b53.jpg
p465
sV80878a443a20e5dc16a68d1deec9e0f2
p466
V80878a443a20e5dc16a68d1deec9e0f2.jpg
p467
sVce284ce0d0dc19e2a917a03829fdf55e
p468
Vce284ce0d0dc19e2a917a03829fdf55e.jpg
p469
sV3aa30ee37c37d410321aa3848d1a41c2
p470
V3aa30ee37c37d410321aa3848d1a41c2.jpg
p471
sV3cbd5bd39c568be66fd813dce4535c51
p472
V3cbd5bd39c568be66fd813dce4535c51.jpg
p473
sV51f4eebdfcb8febabd3d0e5cf5147af8
p474
V51f4eebdfcb8febabd3d0e5cf5147af8.png
p475
sV5ec75ecdc09a6e2006009c50ec71c588
p476
V5ec75ecdc09a6e2006009c50ec71c588.jpg
p477
sVed70af43b5792c28df75189c9e7cab79
p478
Ved70af43b5792c28df75189c9e7cab79.jpg
p479
sVc60aded184adfc0011c5335d3f6dfa4c
p480
Vc60aded184adfc0011c5335d3f6dfa4c.png
p481
sV57a2eaaad16ee74385fa994794324dae
p482
V57a2eaaad16ee74385fa994794324dae.png
p483
sVd2e51ffaf5a3f0fcd68ee4d605e8634d
p484
Vd2e51ffaf5a3f0fcd68ee4d605e8634d.jpg
p485
sV984fd103a792135bb75b5bd3ba42a337
p486
V984fd103a792135bb75b5bd3ba42a337.jpg
p487
sV514b7605ac55b0d28750331c69e3549b
p488
V514b7605ac55b0d28750331c69e3549b.png
p489
sV44de13d21cbcf0a22d3544920f23a985
p490
V44de13d21cbcf0a22d3544920f23a985.png
p491
sVfad66e215579c5e92b2d851d44595e2e
p492
Vfad66e215579c5e92b2d851d44595e2e.jpg
p493
sV282985b4df49d870dd2de014ecbf64bf
p494
V282985b4df49d870dd2de014ecbf64bf.png
p495
sVd00a31f370c87eb83a60d474ecb23bca
p496
Vd00a31f370c87eb83a60d474ecb23bca.jpg
p497
sVc1ac21b6eae92a9f60e563b49cdb4193
p498
Vc1ac21b6eae92a9f60e563b49cdb4193.jpg
p499
sV99304dccb49fb3cbad894a0fd4fd31d4
p500
V99304dccb49fb3cbad894a0fd4fd31d4.jpg
p501
sV5e54ed57e60438984b3b0664837adefa
p502
V5e54ed57e60438984b3b0664837adefa.png
p503
sV424e53efa1bdaadd09a180bc9f1c7865
p504
V424e53efa1bdaadd09a180bc9f1c7865.jpg
p505
sV38310d4d74cdd117d3ca9df9fe1910a6
p506
V38310d4d74cdd117d3ca9df9fe1910a6.jpg
p507
sV1e777c0ca33d9bbc87afc474dbed610a
p508
V1e777c0ca33d9bbc87afc474dbed610a.jpg
p509
sV96b947ad1f1c89dc6e1c7a6958e4d4fe
p510
V96b947ad1f1c89dc6e1c7a6958e4d4fe.jpg
p511
sVae1ab064ed4e18ef57bd5b19cf4c3ab7
p512
Vae1ab064ed4e18ef57bd5b19cf4c3ab7.swf
p513
sVe752291a040a6aef8126ac7024c49315
p514
Ve752291a040a6aef8126ac7024c49315.jpg
p515
sV5fe611bfd7f3fb2b028d83b68c3bf844
p516
V5fe611bfd7f3fb2b028d83b68c3bf844.jpg
p517
sVc8bfa8ee93fafd150432baeb5b381830
p518
Vc8bfa8ee93fafd150432baeb5b381830.png
p519
sV9a85b38db736fcd183bfe969504954e6
p520
V9a85b38db736fcd183bfe969504954e6.png
p521
sVa488401ef27988df76da7ef483015584
p522
Va488401ef27988df76da7ef483015584.png
p523
sV2603ddcbca76a863697053fa25758bef
p524
V2603ddcbca76a863697053fa25758bef.jpg
p525
sV886b14d016659c7888967ecde12463a8
p526
V886b14d016659c7888967ecde12463a8.jpg
p527
sV237a55bbbbe12d59fa05b30b1720dda8
p528
V237a55bbbbe12d59fa05b30b1720dda8.png
p529
sV228b9cd19d3433887969e497e861053d
p530
V228b9cd19d3433887969e497e861053d.jpg
p531
sVe35a19cd01489c642680d5a8b641060a
p532
Ve35a19cd01489c642680d5a8b641060a.jpg
p533
sVee70b65f1af0580a928c5ba4362bc737
p534
Vee70b65f1af0580a928c5ba4362bc737.png
p535
sV09329163fc46d8ee7d303afa77a3d19e
p536
V09329163fc46d8ee7d303afa77a3d19e.jpg
p537
sV61fc6dcbf1d6368de50f492b4ff3d157
p538
V61fc6dcbf1d6368de50f492b4ff3d157.jpg
p539
sV248d39d939e84254fc708618db33ad3a
p540
V248d39d939e84254fc708618db33ad3a.jpg
p541
sV86c0bb964d56c4e6ca57a7cc0e023e53
p542
V86c0bb964d56c4e6ca57a7cc0e023e53.jpg
p543
sV0fa8b02b73ed30e558b8bce727ff99eb
p544
V0fa8b02b73ed30e558b8bce727ff99eb.jpg
p545
sV7058ab28388f485f1b51edcf1b8d8b9d
p546
V7058ab28388f485f1b51edcf1b8d8b9d.png
p547
sVf8f4f482287a408b0d9c0c372ca33603
p548
Vf8f4f482287a408b0d9c0c372ca33603.jpg
p549
sVc89992de01a5e36a355ac7cb704d81e6
p550
Vc89992de01a5e36a355ac7cb704d81e6.jpg
p551
sVbdabe9696ea25060faf17f601c60ff17
p552
Vbdabe9696ea25060faf17f601c60ff17.png
p553
sV83eba7878f9f6d8a81b0bbae9e9c427d
p554
V83eba7878f9f6d8a81b0bbae9e9c427d.jpg
p555
sVcf77ae374b6c761f0c5214e475172f5d
p556
Vcf77ae374b6c761f0c5214e475172f5d.jpg
p557
sVb55404a54e21bc3aebc46a747867b76d
p558
Vb55404a54e21bc3aebc46a747867b76d.swf
p559
sV64710d5317c6d3089b39d9b048668343
p560
V64710d5317c6d3089b39d9b048668343.jpg
p561
sVfc192466067ab038f427e51e529ddf0c
p562
Vfc192466067ab038f427e51e529ddf0c.jpg
p563
sVc3d1f4f40383c8b46f36bbac8268648f
p564
Vc3d1f4f40383c8b46f36bbac8268648f.jpg
p565
sV73ed5fba16cf235feb7cf90dfc3846f9
p566
V73ed5fba16cf235feb7cf90dfc3846f9.jpg
p567
sVba855de47aa37e56c190f5e084696072
p568
Vba855de47aa37e56c190f5e084696072.jpg
p569
sVac1d74be4fa8d3fb008e9bc5de32bc54
p570
Vac1d74be4fa8d3fb008e9bc5de32bc54.swf
p571
sVc237794ce718488de88b3d4c30477dce
p572
Vc237794ce718488de88b3d4c30477dce.png
p573
sV2b47ac6a40e1b5c95b18152fdd4e7619
p574
V2b47ac6a40e1b5c95b18152fdd4e7619.png
p575
sV06f60245c406d9b0fe20cf7b9385a842
p576
V06f60245c406d9b0fe20cf7b9385a842.png
p577
sVb8ff83915449b14fccf3241952dc8bff
p578
Vb8ff83915449b14fccf3241952dc8bff.jpg
p579
sV2ba703ff2c70738ab87029a7a5403685
p580
V2ba703ff2c70738ab87029a7a5403685.png
p581
sV9e4f6c6f2390d7ee2435cf8a88a84a45
p582
V9e4f6c6f2390d7ee2435cf8a88a84a45.jpg
p583
sV5c8e1dcf5ad16a5c59c251b31b49b153
p584
V5c8e1dcf5ad16a5c59c251b31b49b153.jpg
p585
sVde18208ed86b39ea5902f08fe99133a0
p586
Vde18208ed86b39ea5902f08fe99133a0.jpg
p587
sV734a34d120e018afa0c9cca0cb801af1
p588
V734a34d120e018afa0c9cca0cb801af1.jpg
p589
sV88087359223fcb7a8948cda8436d90a8
p590
V88087359223fcb7a8948cda8436d90a8.jpg
p591
sV7b34b804825957e7d3db941b1e4263c9
p592
V7b34b804825957e7d3db941b1e4263c9.jpg
p593
sV01e1890385446e99eb01a638576e9198
p594
V01e1890385446e99eb01a638576e9198.jpg
p595
sV7399fd991a0818a7b26dcf4aab6b6e05
p596
V7399fd991a0818a7b26dcf4aab6b6e05.jpg
p597
sV38368c7d2f3b0c8663ac1f451bbc8e91
p598
V38368c7d2f3b0c8663ac1f451bbc8e91.jpg
p599
sV863e5fb70e16fe0065d225b8810bd076
p600
V863e5fb70e16fe0065d225b8810bd076.png
p601
sV65f1823ca204ae14ed4a15e7360babfb
p602
V65f1823ca204ae14ed4a15e7360babfb.jpg
p603
sV2838fc81c17b2c37b907a51c7e6fc1e7
p604
V2838fc81c17b2c37b907a51c7e6fc1e7.jpg
p605
sVa6d45545c324d206c88d3f971323eb3a
p606
Va6d45545c324d206c88d3f971323eb3a.jpg
p607
sVf50305ad379dd21ef2ef0b095069b577
p608
Vf50305ad379dd21ef2ef0b095069b577.jpg
p609
sV31e0a69f6ff5f054de7c75d7b432bb2f
p610
V31e0a69f6ff5f054de7c75d7b432bb2f.jpg
p611
sVdf40f42751670eb4570e289fc477a660
p612
Vdf40f42751670eb4570e289fc477a660.jpg
p613
sVfe6f98e16f6564bedd8d5c69eafd2b2f
p614
Vfe6f98e16f6564bedd8d5c69eafd2b2f.jpg
p615
sV18c53ab0ac2211909fb8d39ac4298bf2
p616
V18c53ab0ac2211909fb8d39ac4298bf2.png
p617
sV69b068b50daa58deaf94e6fa21a401b2
p618
V69b068b50daa58deaf94e6fa21a401b2.jpg
p619
sV8a9a3ed865632acecb58b9871ddec67d
p620
V8a9a3ed865632acecb58b9871ddec67d.jpg
p621
sV1d13a253f4e22cd5d648b077edbd1b19
p622
V1d13a253f4e22cd5d648b077edbd1b19.jpg
p623
sVda6743d3d6457128f9bd3e6d2c062273
p624
Vda6743d3d6457128f9bd3e6d2c062273.png
p625
sV161d93687bbf75c1d4b59e671132dcf6
p626
V161d93687bbf75c1d4b59e671132dcf6.jpg
p627
sVdf556681b284ca25fbc17d0ab35107d8
p628
Vdf556681b284ca25fbc17d0ab35107d8.jpg
p629
sVb7ca9329fc1af19b87383f3ede5949f8
p630
Vb7ca9329fc1af19b87383f3ede5949f8.jpg
p631
sV154b2c796065668bfab364bb5495a5bf
p632
V154b2c796065668bfab364bb5495a5bf.jpg
p633
sV868d464cbaabcef0f701f378f14e8aaf
p634
V868d464cbaabcef0f701f378f14e8aaf.jpg
p635
sV2a9eecf6756ca8987cc3e6957117d27d
p636
V2a9eecf6756ca8987cc3e6957117d27d.jpg
p637
sVe712e87e6bcf85e0a2758e1c14baf49b
p638
Ve712e87e6bcf85e0a2758e1c14baf49b.jpg
p639
sV1c08e8f86605582ffd7c8dcd675d33b7
p640
V1c08e8f86605582ffd7c8dcd675d33b7.png
p641
sVfac7c7f77001a54208e7bb1cac5bc844
p642
Vfac7c7f77001a54208e7bb1cac5bc844.jpg
p643
sV1907061af36321f9dc358e1a6e7fd259
p644
V1907061af36321f9dc358e1a6e7fd259.png
p645
sVed3f1d9c31317cf9376bad3ea7842aa3
p646
Ved3f1d9c31317cf9376bad3ea7842aa3.jpg
p647
sV3faddc7f3561c8f125bb78cdbe67c6c5
p648
V3faddc7f3561c8f125bb78cdbe67c6c5.jpg
p649
sV1bc435bd4c0e2fa94803d2c61a7b0e59
p650
V1bc435bd4c0e2fa94803d2c61a7b0e59.jpg
p651
sV4ad81b4c1460c052f88621e45d79ad4a
p652
V4ad81b4c1460c052f88621e45d79ad4a.png
p653
sV09c438eb88698eb1fb79a1baa82cc9a7
p654
V09c438eb88698eb1fb79a1baa82cc9a7.png
p655
sV9e36fecf6e1bf33c05d6f84705e50d2d
p656
V9e36fecf6e1bf33c05d6f84705e50d2d.jpg
p657
sV358d2c2705d89079897278d2845215db
p658
V358d2c2705d89079897278d2845215db.png
p659
sV7ddd26e902dc3a84b73870dcb571305f
p660
V7ddd26e902dc3a84b73870dcb571305f.jpg
p661
sV8e3f05e7944536e0c7d7972776e6ed5c
p662
V8e3f05e7944536e0c7d7972776e6ed5c.jpg
p663
sV0d8f3d2934f6ed7685fca18ab97002fd
p664
V0d8f3d2934f6ed7685fca18ab97002fd.jpg
p665
sVa6d31747e52e2d58ebc3ef383d3ad864
p666
Va6d31747e52e2d58ebc3ef383d3ad864.jpg
p667
sV12e9195081f0a556605ff38112e0ebf1
p668
V12e9195081f0a556605ff38112e0ebf1.png
p669
sV9c3f69d79e4393fcb3a6cd3b2d05c03f
p670
V9c3f69d79e4393fcb3a6cd3b2d05c03f.jpg
p671
sVd0ddd2fa8b4ccd7620737aaf0b574740
p672
Vd0ddd2fa8b4ccd7620737aaf0b574740.jpg
p673
sV7b9516f97ead685ecc3cd1d2c2b4eb3e
p674
V7b9516f97ead685ecc3cd1d2c2b4eb3e.jpg
p675
sVf19be6c7b46b650d4a40131f990ddd9c
p676
Vf19be6c7b46b650d4a40131f990ddd9c.png
p677
sVa2cefc3f9774289cc32e507daf9cb513
p678
Va2cefc3f9774289cc32e507daf9cb513.jpg
p679
sV4c7d6f2b2bf781fce8840c9f8fd360ba
p680
V4c7d6f2b2bf781fce8840c9f8fd360ba.jpg
p681
sV79832ea1c9661a1588877866e8115478
p682
V79832ea1c9661a1588877866e8115478.jpg
p683
sV2c8982587dbee81d3207f644bf06a266
p684
V2c8982587dbee81d3207f644bf06a266.jpg
p685
sVa6fddad27060c4d069624fa0110bfadb
p686
Va6fddad27060c4d069624fa0110bfadb.jpg
p687
sV5b1f08162b015d282f3b0e4dbf968da5
p688
V5b1f08162b015d282f3b0e4dbf968da5.jpg
p689
sV6f0921e841897b31ed335abbd7a91761
p690
V6f0921e841897b31ed335abbd7a91761.png
p691
sV7ac72a35786d38e1e442cdae2ae80b1b
p692
V7ac72a35786d38e1e442cdae2ae80b1b.png
p693
sV45dd6816c736e00cf6f4acbdd20dca78
p694
V45dd6816c736e00cf6f4acbdd20dca78.jpg
p695
sVacdab0902d01eafa77e094fcd135cf00
p696
Vacdab0902d01eafa77e094fcd135cf00.jpg
p697
sV1f61c60efd51c44466732d5b779c4f61
p698
V1f61c60efd51c44466732d5b779c4f61.jpg
p699
sVe30247c5254052f27621ffa59046dcd2
p700
Ve30247c5254052f27621ffa59046dcd2.jpg
p701
sV0ab1288f69b9ea06b5728a30fb455d5e
p702
V0ab1288f69b9ea06b5728a30fb455d5e.jpg
p703
sV074e11b62fb18c2e8175d96e1e7a09b8
p704
V074e11b62fb18c2e8175d96e1e7a09b8.jpg
p705
sV80234cdfc9efe771715407c10f54ea01
p706
V80234cdfc9efe771715407c10f54ea01.png
p707
sV60210c6e2a3e3a2b015647d9db559585
p708
V60210c6e2a3e3a2b015647d9db559585.jpg
p709
sV02b3adecb18f8d4c1e636ecd5151ea2c
p710
V02b3adecb18f8d4c1e636ecd5151ea2c.jpg
p711
sV7d574dd57588b462f16e0e3cde9febc3
p712
V7d574dd57588b462f16e0e3cde9febc3.jpg
p713
sV3318a8dd6303abc86d574c572f8db246
p714
V3318a8dd6303abc86d574c572f8db246.jpg
p715
sV26615c98926f0dea9c3d39bee24897cc
p716
V26615c98926f0dea9c3d39bee24897cc.png
p717
sVd881789cb7e465268bcc867f87444d54
p718
Vd881789cb7e465268bcc867f87444d54.jpg
p719
sVd70a09e9694dfd3d095b1621a868f11d
p720
Vd70a09e9694dfd3d095b1621a868f11d.jpg
p721
sV6430a6b1b1314af5c7d1b32e378785ff
p722
V6430a6b1b1314af5c7d1b32e378785ff.jpg
p723
sV7d26dea3247ba5715fca0d9a0b853ab1
p724
V7d26dea3247ba5715fca0d9a0b853ab1.jpg
p725
sV59c5e3ede721e871298110e6c74a6882
p726
V59c5e3ede721e871298110e6c74a6882.jpg
p727
sV42a62c21cbda7072521fe76e0bbe127d
p728
V42a62c21cbda7072521fe76e0bbe127d.jpg
p729
sVdb66fdb363693584f1475e8960156ef7
p730
Vdb66fdb363693584f1475e8960156ef7.jpg
p731
sV7ebd968ecf0f4066f6fad2015ed76bcf
p732
V7ebd968ecf0f4066f6fad2015ed76bcf.jpg
p733
sVf4ff64eff3953596e718f1aef4b1435a
p734
Vf4ff64eff3953596e718f1aef4b1435a.png
p735
sV78998bf93fb71edd0bae5fa1c2148b67
p736
V78998bf93fb71edd0bae5fa1c2148b67.jpg
p737
sV392b36bb8dabaf5201a6e943723c5e53
p738
V392b36bb8dabaf5201a6e943723c5e53.jpg
p739
sV1a3ce8acd38f35364d205c5cf37e0b3d
p740
V1a3ce8acd38f35364d205c5cf37e0b3d.jpg
p741
sV6c0d73354bd739e3bd7e4bb678fcac3e
p742
V6c0d73354bd739e3bd7e4bb678fcac3e.jpg
p743
sV8b03d7b21bcae31640d5d9e542bfe286
p744
V8b03d7b21bcae31640d5d9e542bfe286.jpg
p745
sVc79fff164d9b1a87a9b643dbc8e73a13
p746
Vc79fff164d9b1a87a9b643dbc8e73a13.jpg
p747
sVa0d642957dee5e319be0388e5dcdd3d0
p748
Va0d642957dee5e319be0388e5dcdd3d0.jpg
p749
sV8575d89e1651e91e8c573b76877b0462
p750
V8575d89e1651e91e8c573b76877b0462.jpg
p751
sV7c657ac57fe954a51c65fd5eaf3c07e7
p752
V7c657ac57fe954a51c65fd5eaf3c07e7.jpg
p753
sV39f93404278c15aeded7fb6614e13ce9
p754
V39f93404278c15aeded7fb6614e13ce9.png
p755
sV810826562916128f3303423524f95019
p756
V810826562916128f3303423524f95019.jpg
p757
sV3631787a88c56e3b4951c9a00f2638dd
p758
V3631787a88c56e3b4951c9a00f2638dd.jpg
p759
sV321b0298a8ef574308bb62324136e06a
p760
V321b0298a8ef574308bb62324136e06a.jpg
p761
sV17f1b0f949e7a474733cbc15f4cd706a
p762
V17f1b0f949e7a474733cbc15f4cd706a.jpg
p763
sV44a0a825be146d14bdd8a8657d47c701
p764
V44a0a825be146d14bdd8a8657d47c701.jpg
p765
sV888484e8a73a6408f1baa610e47fad56
p766
V888484e8a73a6408f1baa610e47fad56.png
p767
sVbb1fb7ab053ccc409271002584927fea
p768
Vbb1fb7ab053ccc409271002584927fea.jpg
p769
sV12dfd4b2e2023c3561f05919c2e89503
p770
V12dfd4b2e2023c3561f05919c2e89503.jpg
p771
sVf88fe52ab16b3ff53f9b3ad0b01cc98f
p772
Vf88fe52ab16b3ff53f9b3ad0b01cc98f.jpg
p773
sV5a0232a938f851f536f7b72958ee0a3d
p774
V5a0232a938f851f536f7b72958ee0a3d.jpg
p775
sVd053e491e04e83faea924ae2b7ae8a50
p776
Vd053e491e04e83faea924ae2b7ae8a50.jpg
p777
s.